target datalayout = "e-m:e-p270:32:32-p271:32:32-p272:64:64-i64:64-i128:128-f80:128-n8:16:32:64-S128"
target triple = "x86_64-pc-linux-gnu"

%struct.drwav_fmt = type { i16, i16, i32, i32, i16, i16, i16, i16, i32, [16 x i8] }
%struct.drwav_allocation_callbacks = type { ptr, ptr, ptr, ptr }
%struct.drwav = type { ptr, ptr, ptr, ptr, %struct.drwav_allocation_callbacks, i32, %struct.drwav_fmt, i32, i16, i16, i16, i64, i64, i64, i64, i64, i64, i32, ptr, i32, %struct.drwav__memory_stream, %struct.drwav__memory_stream_write, %struct.anon.57, %struct.anon.58, %struct.anon.59 }
%struct.drwav__memory_stream = type { ptr, i64, i64 }
%struct.drwav__memory_stream_write = type { ptr, ptr, i64, i64, i64 }
%struct.anon.57 = type { i32, [2 x i16], [2 x i32], [4 x i32], i32, [2 x [2 x i32]] }
%struct.anon.58 = type { i32, [2 x i32], [2 x i32], [16 x i32], i32 }
%struct.anon.59 = type { i8, i8 }
%struct.drwav_data_format = type { i32, i32, i32, i32, i32 }

; Function Attrs: nounwind uwtable
define internal void @drwav_copy_allocation_callbacks_or_defaults(ptr dead_on_unwind noalias writable sret(%struct.drwav_allocation_callbacks) align 8 %0, ptr noundef %1) #0 {
  %3 = alloca ptr, align 8
  store ptr %1, ptr %3, align 8
  %4 = load ptr, ptr %3, align 8
  %5 = icmp ne ptr %4, null
  br i1 %5, label %6, label %8

6:                                                ; preds = %2
  %7 = load ptr, ptr %3, align 8
  call void @llvm.memcpy.p0.p0.i64(ptr align 8 %0, ptr align 8 %7, i64 32, i1 false)
  br label %13

8:                                                ; preds = %2
  %9 = getelementptr inbounds nuw %struct.drwav_allocation_callbacks, ptr %0, i32 0, i32 0
  store ptr null, ptr %9, align 8
  %10 = getelementptr inbounds nuw %struct.drwav_allocation_callbacks, ptr %0, i32 0, i32 1
  store ptr @drwav__malloc_default, ptr %10, align 8
  %11 = getelementptr inbounds nuw %struct.drwav_allocation_callbacks, ptr %0, i32 0, i32 2
  store ptr @drwav__realloc_default, ptr %11, align 8
  %12 = getelementptr inbounds nuw %struct.drwav_allocation_callbacks, ptr %0, i32 0, i32 3
  store ptr @drwav__free_default, ptr %12, align 8
  br label %13

13:                                               ; preds = %8, %6
  ret void
}

; Function Attrs: nounwind uwtable
define internal i32 @drwav_preinit_write(ptr noundef %0, ptr noundef %1, i32 noundef %2, ptr noundef %3, ptr noundef %4, ptr noundef %5, ptr noundef %6) #0 {
  %8 = alloca i32, align 4
  %9 = alloca ptr, align 8
  %10 = alloca ptr, align 8
  %11 = alloca i32, align 4
  %12 = alloca ptr, align 8
  %13 = alloca ptr, align 8
  %14 = alloca ptr, align 8
  %15 = alloca ptr, align 8
  %16 = alloca %struct.drwav_allocation_callbacks, align 8
  store ptr %0, ptr %9, align 8
  store ptr %1, ptr %10, align 8
  store i32 %2, ptr %11, align 4
  store ptr %3, ptr %12, align 8
  store ptr %4, ptr %13, align 8
  store ptr %5, ptr %14, align 8
  store ptr %6, ptr %15, align 8
  %17 = load ptr, ptr %9, align 8
  %18 = icmp eq ptr %17, null
  br i1 %18, label %22, label %19

19:                                               ; preds = %7
  %20 = load ptr, ptr %12, align 8
  %21 = icmp eq ptr %20, null
  br i1 %21, label %22, label %23

22:                                               ; preds = %19, %7
  store i32 0, ptr %8, align 4
  br label %140

23:                                               ; preds = %19
  %24 = load i32, ptr %11, align 4
  %25 = icmp ne i32 %24, 0
  br i1 %25, label %30, label %26

26:                                               ; preds = %23
  %27 = load ptr, ptr %13, align 8
  %28 = icmp eq ptr %27, null
  br i1 %28, label %29, label %30

29:                                               ; preds = %26
  store i32 0, ptr %8, align 4
  br label %140

30:                                               ; preds = %26, %23
  %31 = load ptr, ptr %10, align 8
  %32 = getelementptr inbounds nuw %struct.drwav_data_format, ptr %31, i32 0, i32 1
  %33 = load i32, ptr %32, align 4
  %34 = icmp eq i32 %33, 65534
  br i1 %34, label %35, label %36

35:                                               ; preds = %30
  store i32 0, ptr %8, align 4
  br label %140

36:                                               ; preds = %30
  %37 = load ptr, ptr %10, align 8
  %38 = getelementptr inbounds nuw %struct.drwav_data_format, ptr %37, i32 0, i32 1
  %39 = load i32, ptr %38, align 4
  %40 = icmp eq i32 %39, 2
  br i1 %40, label %46, label %41

41:                                               ; preds = %36
  %42 = load ptr, ptr %10, align 8
  %43 = getelementptr inbounds nuw %struct.drwav_data_format, ptr %42, i32 0, i32 1
  %44 = load i32, ptr %43, align 4
  %45 = icmp eq i32 %44, 17
  br i1 %45, label %46, label %47

46:                                               ; preds = %41, %36
  store i32 0, ptr %8, align 4
  br label %140

47:                                               ; preds = %41
  %48 = load ptr, ptr %9, align 8
  call void @llvm.memset.p0.i64(ptr align 8 %48, i8 0, i64 400, i1 false)
  %49 = load ptr, ptr %12, align 8
  %50 = load ptr, ptr %9, align 8
  %51 = getelementptr inbounds nuw %struct.drwav, ptr %50, i32 0, i32 1
  store ptr %49, ptr %51, align 8
  %52 = load ptr, ptr %13, align 8
  %53 = load ptr, ptr %9, align 8
  %54 = getelementptr inbounds nuw %struct.drwav, ptr %53, i32 0, i32 2
  store ptr %52, ptr %54, align 8
  %55 = load ptr, ptr %14, align 8
  %56 = load ptr, ptr %9, align 8
  %57 = getelementptr inbounds nuw %struct.drwav, ptr %56, i32 0, i32 3
  store ptr %55, ptr %57, align 8
  %58 = load ptr, ptr %9, align 8
  %59 = getelementptr inbounds nuw %struct.drwav, ptr %58, i32 0, i32 4
  call void @llvm.lifetime.start.p0(i64 32, ptr %16) #21
  %60 = load ptr, ptr %15, align 8
  call void @drwav_copy_allocation_callbacks_or_defaults(ptr dead_on_unwind writable sret(%struct.drwav_allocation_callbacks) align 8 %16, ptr noundef %60)
  call void @llvm.memcpy.p0.p0.i64(ptr align 8 %59, ptr align 8 %16, i64 32, i1 false)
  call void @llvm.lifetime.end.p0(i64 32, ptr %16) #21
  %61 = load ptr, ptr %9, align 8
  %62 = getelementptr inbounds nuw %struct.drwav, ptr %61, i32 0, i32 4
  %63 = getelementptr inbounds nuw %struct.drwav_allocation_callbacks, ptr %62, i32 0, i32 3
  %64 = load ptr, ptr %63, align 8
  %65 = icmp eq ptr %64, null
  br i1 %65, label %78, label %66

66:                                               ; preds = %47
  %67 = load ptr, ptr %9, align 8
  %68 = getelementptr inbounds nuw %struct.drwav, ptr %67, i32 0, i32 4
  %69 = getelementptr inbounds nuw %struct.drwav_allocation_callbacks, ptr %68, i32 0, i32 1
  %70 = load ptr, ptr %69, align 8
  %71 = icmp eq ptr %70, null
  br i1 %71, label %72, label %79

72:                                               ; preds = %66
  %73 = load ptr, ptr %9, align 8
  %74 = getelementptr inbounds nuw %struct.drwav, ptr %73, i32 0, i32 4
  %75 = getelementptr inbounds nuw %struct.drwav_allocation_callbacks, ptr %74, i32 0, i32 2
  %76 = load ptr, ptr %75, align 8
  %77 = icmp eq ptr %76, null
  br i1 %77, label %78, label %79

78:                                               ; preds = %72, %47
  store i32 0, ptr %8, align 4
  br label %140

79:                                               ; preds = %72, %66
  %80 = load ptr, ptr %10, align 8
  %81 = getelementptr inbounds nuw %struct.drwav_data_format, ptr %80, i32 0, i32 1
  %82 = load i32, ptr %81, align 4
  %83 = trunc i32 %82 to i16
  %84 = load ptr, ptr %9, align 8
  %85 = getelementptr inbounds nuw %struct.drwav, ptr %84, i32 0, i32 6
  %86 = getelementptr inbounds nuw %struct.drwav_fmt, ptr %85, i32 0, i32 0
  store i16 %83, ptr %86, align 4
  %87 = load ptr, ptr %10, align 8
  %88 = getelementptr inbounds nuw %struct.drwav_data_format, ptr %87, i32 0, i32 2
  %89 = load i32, ptr %88, align 4
  %90 = trunc i32 %89 to i16
  %91 = load ptr, ptr %9, align 8
  %92 = getelementptr inbounds nuw %struct.drwav, ptr %91, i32 0, i32 6
  %93 = getelementptr inbounds nuw %struct.drwav_fmt, ptr %92, i32 0, i32 1
  store i16 %90, ptr %93, align 2
  %94 = load ptr, ptr %10, align 8
  %95 = getelementptr inbounds nuw %struct.drwav_data_format, ptr %94, i32 0, i32 3
  %96 = load i32, ptr %95, align 4
  %97 = load ptr, ptr %9, align 8
  %98 = getelementptr inbounds nuw %struct.drwav, ptr %97, i32 0, i32 6
  %99 = getelementptr inbounds nuw %struct.drwav_fmt, ptr %98, i32 0, i32 2
  store i32 %96, ptr %99, align 4
  %100 = load ptr, ptr %10, align 8
  %101 = getelementptr inbounds nuw %struct.drwav_data_format, ptr %100, i32 0, i32 4
  %102 = load i32, ptr %101, align 4
  %103 = load ptr, ptr %10, align 8
  %104 = getelementptr inbounds nuw %struct.drwav_data_format, ptr %103, i32 0, i32 3
  %105 = load i32, ptr %104, align 4
  %106 = mul i32 %102, %105
  %107 = load ptr, ptr %10, align 8
  %108 = getelementptr inbounds nuw %struct.drwav_data_format, ptr %107, i32 0, i32 2
  %109 = load i32, ptr %108, align 4
  %110 = mul i32 %106, %109
  %111 = udiv i32 %110, 8
  %112 = load ptr, ptr %9, align 8
  %113 = getelementptr inbounds nuw %struct.drwav, ptr %112, i32 0, i32 6
  %114 = getelementptr inbounds nuw %struct.drwav_fmt, ptr %113, i32 0, i32 3
  store i32 %111, ptr %114, align 4
  %115 = load ptr, ptr %10, align 8
  %116 = getelementptr inbounds nuw %struct.drwav_data_format, ptr %115, i32 0, i32 2
  %117 = load i32, ptr %116, align 4
  %118 = load ptr, ptr %10, align 8
  %119 = getelementptr inbounds nuw %struct.drwav_data_format, ptr %118, i32 0, i32 4
  %120 = load i32, ptr %119, align 4
  %121 = mul i32 %117, %120
  %122 = udiv i32 %121, 8
  %123 = trunc i32 %122 to i16
  %124 = load ptr, ptr %9, align 8
  %125 = getelementptr inbounds nuw %struct.drwav, ptr %124, i32 0, i32 6
  %126 = getelementptr inbounds nuw %struct.drwav_fmt, ptr %125, i32 0, i32 4
  store i16 %123, ptr %126, align 4
  %127 = load ptr, ptr %10, align 8
  %128 = getelementptr inbounds nuw %struct.drwav_data_format, ptr %127, i32 0, i32 4
  %129 = load i32, ptr %128, align 4
  %130 = trunc i32 %129 to i16
  %131 = load ptr, ptr %9, align 8
  %132 = getelementptr inbounds nuw %struct.drwav, ptr %131, i32 0, i32 6
  %133 = getelementptr inbounds nuw %struct.drwav_fmt, ptr %132, i32 0, i32 5
  store i16 %130, ptr %133, align 2
  %134 = load ptr, ptr %9, align 8
  %135 = getelementptr inbounds nuw %struct.drwav, ptr %134, i32 0, i32 6
  %136 = getelementptr inbounds nuw %struct.drwav_fmt, ptr %135, i32 0, i32 6
  store i16 0, ptr %136, align 4
  %137 = load i32, ptr %11, align 4
  %138 = load ptr, ptr %9, align 8
  %139 = getelementptr inbounds nuw %struct.drwav, ptr %138, i32 0, i32 17
  store i32 %137, ptr %139, align 8
  store i32 1, ptr %8, align 4
  br label %140

140:                                              ; preds = %79, %78, %46, %35, %29, %22
  %141 = load i32, ptr %8, align 4
  ret i32 %141
}

; Function Attrs: nounwind uwtable
define internal i32 @drwav_init_memory_write__internal(ptr noundef %0, ptr noundef %1, ptr noundef %2, ptr noundef %3, i64 noundef %4, i32 noundef %5, ptr noundef %6) #0 {
  %8 = alloca i32, align 4
  %9 = alloca ptr, align 8
  %10 = alloca ptr, align 8
  %11 = alloca ptr, align 8
  %12 = alloca ptr, align 8
  %13 = alloca i64, align 8
  %14 = alloca i32, align 4
  %15 = alloca ptr, align 8
  store ptr %0, ptr %9, align 8
  store ptr %1, ptr %10, align 8
  store ptr %2, ptr %11, align 8
  store ptr %3, ptr %12, align 8
  store i64 %4, ptr %13, align 8
  store i32 %5, ptr %14, align 4
  store ptr %6, ptr %15, align 8
  %16 = load ptr, ptr %10, align 8
  %17 = icmp eq ptr %16, null
  br i1 %17, label %21, label %18

18:                                               ; preds = %7
  %19 = load ptr, ptr %11, align 8
  %20 = icmp eq ptr %19, null
  br i1 %20, label %21, label %22

21:                                               ; preds = %18, %7
  store i32 0, ptr %8, align 4
  br label %55

22:                                               ; preds = %18
  %23 = load ptr, ptr %10, align 8
  store ptr null, ptr %23, align 8
  %24 = load ptr, ptr %11, align 8
  store i64 0, ptr %24, align 8
  %25 = load ptr, ptr %9, align 8
  %26 = load ptr, ptr %12, align 8
  %27 = load i32, ptr %14, align 4
  %28 = load ptr, ptr %9, align 8
  %29 = load ptr, ptr %15, align 8
  %30 = call i32 @drwav_preinit_write(ptr noundef %25, ptr noundef %26, i32 noundef %27, ptr noundef @drwav__on_write_memory, ptr noundef @drwav__on_seek_memory_write, ptr noundef %28, ptr noundef %29)
  %31 = icmp ne i32 %30, 0
  br i1 %31, label %33, label %32

32:                                               ; preds = %22
  store i32 0, ptr %8, align 4
  br label %55

33:                                               ; preds = %22
  %34 = load ptr, ptr %10, align 8
  %35 = load ptr, ptr %9, align 8
  %36 = getelementptr inbounds nuw %struct.drwav, ptr %35, i32 0, i32 21
  %37 = getelementptr inbounds nuw %struct.drwav__memory_stream_write, ptr %36, i32 0, i32 0
  store ptr %34, ptr %37, align 8
  %38 = load ptr, ptr %11, align 8
  %39 = load ptr, ptr %9, align 8
  %40 = getelementptr inbounds nuw %struct.drwav, ptr %39, i32 0, i32 21
  %41 = getelementptr inbounds nuw %struct.drwav__memory_stream_write, ptr %40, i32 0, i32 1
  store ptr %38, ptr %41, align 8
  %42 = load ptr, ptr %9, align 8
  %43 = getelementptr inbounds nuw %struct.drwav, ptr %42, i32 0, i32 21
  %44 = getelementptr inbounds nuw %struct.drwav__memory_stream_write, ptr %43, i32 0, i32 2
  store i64 0, ptr %44, align 8
  %45 = load ptr, ptr %9, align 8
  %46 = getelementptr inbounds nuw %struct.drwav, ptr %45, i32 0, i32 21
  %47 = getelementptr inbounds nuw %struct.drwav__memory_stream_write, ptr %46, i32 0, i32 3
  store i64 0, ptr %47, align 8
  %48 = load ptr, ptr %9, align 8
  %49 = getelementptr inbounds nuw %struct.drwav, ptr %48, i32 0, i32 21
  %50 = getelementptr inbounds nuw %struct.drwav__memory_stream_write, ptr %49, i32 0, i32 4
  store i64 0, ptr %50, align 8
  %51 = load ptr, ptr %9, align 8
  %52 = load ptr, ptr %12, align 8
  %53 = load i64, ptr %13, align 8
  %54 = call i32 @drwav_init_write__internal(ptr noundef %51, ptr noundef %52, i64 noundef %53)
  store i32 %54, ptr %8, align 4
  br label %55

55:                                               ; preds = %33, %32, %21
  %56 = load i32, ptr %8, align 4
  ret i32 %56
}