; Function Attrs: nounwind uwtable
define internal fastcc range(i32 0, 2) i32 @drwav_init_memory_write__internal(ptr noundef %0, ptr noundef %1, ptr noundef %2, ptr noundef readonly captures(none) %3, i64 noundef %4, i32 noundef range(i32 0, 2) %5, ptr noundef readonly captures(address_is_null) %6) unnamed_addr #7 {
  %8 = icmp eq ptr %1, null
  %9 = icmp eq ptr %2, null
  %or.cond = or i1 %8, %9
  br i1 %or.cond, label %drwav_preinit_write.exit.thread, label %10

10:                                               ; preds = %7
  store ptr null, ptr %1, align 8
  store i64 0, ptr %2, align 8
  %11 = icmp eq ptr %0, null
  br i1 %11, label %drwav_preinit_write.exit.thread, label %12

12:                                               ; preds = %10
  %13 = getelementptr inbounds nuw i8, ptr %3, i64 4
  %14 = load i32, ptr %13, align 4
  switch i32 %14, label %15 [
    i32 65534, label %drwav_preinit_write.exit.thread
    i32 2, label %drwav_preinit_write.exit.thread
    i32 17, label %drwav_preinit_write.exit.thread
  ]

15:                                               ; preds = %12
  tail call void @llvm.memset.p0.i64(ptr noundef nonnull align 8 dereferenceable(400) %0, i8 0, i64 400, i1 false)
  %16 = getelementptr inbounds nuw i8, ptr %0, i64 8
  store ptr @drwav__on_write_memory, ptr %16, align 8
  %17 = getelementptr inbounds nuw i8, ptr %0, i64 16
  store ptr @drwav__on_seek_memory_write, ptr %17, align 8
  %18 = getelementptr inbounds nuw i8, ptr %0, i64 24
  store ptr %0, ptr %18, align 8
  %.not.i.i = icmp eq ptr %6, null
  br i1 %.not.i.i, label %.thread.i, label %drwav_copy_allocation_callbacks_or_defaults.exit.i

.thread.i:                                        ; preds = %15
  %.sroa.5.0..sroa_idx52.i = getelementptr inbounds nuw i8, ptr %0, i64 40
  store ptr @drwav__malloc_default, ptr %.sroa.5.0..sroa_idx52.i, align 8
  %.sroa.6.0..sroa_idx53.i = getelementptr inbounds nuw i8, ptr %0, i64 48
  store ptr @drwav__realloc_default, ptr %.sroa.6.0..sroa_idx53.i, align 8
  %.sroa.7.0..sroa_idx54.i = getelementptr inbounds nuw i8, ptr %0, i64 56
  store ptr @drwav__free_default, ptr %.sroa.7.0..sroa_idx54.i, align 8
  br label %24

drwav_copy_allocation_callbacks_or_defaults.exit.i: ; preds = %15
  %19 = getelementptr inbounds nuw i8, ptr %0, i64 32
  %.sroa.0.0.copyload43.i = load ptr, ptr %6, align 8
  %.sroa.5.0..sroa_idx44.i = getelementptr inbounds nuw i8, ptr %6, i64 8
  %.sroa.5.0.copyload45.i = load ptr, ptr %.sroa.5.0..sroa_idx44.i, align 8
  %.sroa.6.0..sroa_idx46.i = getelementptr inbounds nuw i8, ptr %6, i64 16
  %.sroa.6.0.copyload47.i = load ptr, ptr %.sroa.6.0..sroa_idx46.i, align 8
  %.sroa.7.0..sroa_idx48.i = getelementptr inbounds nuw i8, ptr %6, i64 24
  %.sroa.7.0.copyload49.i = load ptr, ptr %.sroa.7.0..sroa_idx48.i, align 8
  store ptr %.sroa.0.0.copyload43.i, ptr %19, align 8
  %.sroa.5.0..sroa_idx.i = getelementptr inbounds nuw i8, ptr %0, i64 40
  store ptr %.sroa.5.0.copyload45.i, ptr %.sroa.5.0..sroa_idx.i, align 8
  %.sroa.6.0..sroa_idx.i = getelementptr inbounds nuw i8, ptr %0, i64 48
  store ptr %.sroa.6.0.copyload47.i, ptr %.sroa.6.0..sroa_idx.i, align 8
  %.sroa.7.0..sroa_idx.i = getelementptr inbounds nuw i8, ptr %0, i64 56
  store ptr %.sroa.7.0.copyload49.i, ptr %.sroa.7.0..sroa_idx.i, align 8
  %20 = icmp eq ptr %.sroa.7.0.copyload49.i, null
  br i1 %20, label %drwav_preinit_write.exit.thread, label %21

21:                                               ; preds = %drwav_copy_allocation_callbacks_or_defaults.exit.i
  %22 = icmp eq ptr %.sroa.5.0.copyload45.i, null
  %23 = icmp eq ptr %.sroa.6.0.copyload47.i, null
  %or.cond55.i = select i1 %22, i1 %23, i1 false
  br i1 %or.cond55.i, label %drwav_preinit_write.exit.thread, label %24

24:                                               ; preds = %21, %.thread.i
  %25 = load i32, ptr %13, align 4
  %26 = trunc i32 %25 to i16
  %27 = getelementptr inbounds nuw i8, ptr %0, i64 68
  store i16 %26, ptr %27, align 4
  %28 = getelementptr inbounds nuw i8, ptr %3, i64 8
  %29 = load i32, ptr %28, align 4
  %30 = trunc i32 %29 to i16
  %31 = getelementptr inbounds nuw i8, ptr %0, i64 70
  store i16 %30, ptr %31, align 2
  %32 = getelementptr inbounds nuw i8, ptr %3, i64 12
  %33 = load i32, ptr %32, align 4
  %34 = getelementptr inbounds nuw i8, ptr %0, i64 72
  store i32 %33, ptr %34, align 4
  %35 = getelementptr inbounds nuw i8, ptr %3, i64 16
  %36 = load i32, ptr %35, align 4
  %37 = mul i32 %36, %33
  %38 = load i32, ptr %28, align 4
  %39 = mul i32 %37, %38
  %40 = lshr i32 %39, 3
  %41 = getelementptr inbounds nuw i8, ptr %0, i64 76
  store i32 %40, ptr %41, align 4
  %42 = load i32, ptr %28, align 4
  %43 = load i32, ptr %35, align 4
  %44 = mul i32 %43, %42
  %45 = lshr i32 %44, 3
  %46 = trunc i32 %45 to i16
  %47 = getelementptr inbounds nuw i8, ptr %0, i64 80
  store i16 %46, ptr %47, align 4
  %48 = load i32, ptr %35, align 4
  %49 = trunc i32 %48 to i16
  %50 = getelementptr inbounds nuw i8, ptr %0, i64 82
  store i16 %49, ptr %50, align 2
  %51 = getelementptr inbounds nuw i8, ptr %0, i64 84
  store i16 0, ptr %51, align 4
  %52 = getelementptr inbounds nuw i8, ptr %0, i64 168
  store i32 %5, ptr %52, align 8
  %53 = getelementptr inbounds nuw i8, ptr %0, i64 216
  store ptr %1, ptr %53, align 8
  %54 = getelementptr inbounds nuw i8, ptr %0, i64 224
  store ptr %2, ptr %54, align 8
  %55 = getelementptr inbounds nuw i8, ptr %0, i64 232
  tail call void @llvm.memset.p0.i64(ptr noundef nonnull align 8 dereferenceable(24) %55, i8 0, i64 24, i1 false)
  %56 = tail call fastcc i32 @drwav_init_write__internal(ptr noundef nonnull %0, ptr noundef nonnull %3, i64 noundef %4)
  br label %drwav_preinit_write.exit.thread

drwav_preinit_write.exit.thread:                  ; preds = %21, %drwav_copy_allocation_callbacks_or_defaults.exit.i, %12, %12, %12, %10, %7, %24
  %.0 = phi i32 [ %56, %24 ], [ 0, %7 ], [ 0, %10 ], [ 0, %12 ], [ 0, %12 ], [ 0, %12 ], [ 0, %drwav_copy_allocation_callbacks_or_defaults.exit.i ], [ 0, %21 ]
  ret i32 %.0
}